; Function Attrs: mustprogress nounwind uwtable
define dso_local void @_ZN32cmMakefileLibraryTargetGeneratorD0Ev(ptr noundef nonnull align 8 dereferenceable(1128) %0) unnamed_addr #4 align 2 {
  store ptr getelementptr inbounds ({ [9 x ptr] }, ptr @_ZTV32cmMakefileLibraryTargetGenerator, i64 0, i32 0, i64 2), ptr %0, align 8
  %2 = getelementptr inbounds i8, ptr %0, i64 1096
  tail call void @_ZNSt7__cxx1112basic_stringIcSt11char_traitsIcESaIcEED1Ev(ptr noundef nonnull align 8 dereferenceable(32) %2) #17
  %3 = getelementptr inbounds i8, ptr %0, i64 1064
  tail call void @_ZNSt7__cxx1112basic_stringIcSt11char_traitsIcESaIcEED1Ev(ptr noundef nonnull align 8 dereferenceable(32) %3) #17
  tail call void @_ZN25cmMakefileTargetGeneratorD2Ev(ptr noundef nonnull align 8 dereferenceable(1064) %0) #17
  tail call void @_ZdlPv(ptr noundef nonnull %0) #19
  ret void
}